target datalayout = "e-m:e-p270:32:32-p271:32:32-p272:64:64-i64:64-i128:128-f80:128-n8:16:32:64-S128"
target triple = "x86_64-unknown-linux-gnu"

%struct.uv__queue = type { ptr, ptr }
%struct.uv_loop_s = type { ptr, i32, %struct.uv__queue, %union.anon.1, ptr, i32, i64, i32, %struct.uv__queue, %struct.uv__queue, ptr, i32, i32, %struct.uv__queue, %union.pthread_mutex_t, %struct.uv_async_s, %union.pthread_rwlock_t, ptr, %struct.uv__queue, %struct.uv__queue, %struct.uv__queue, %struct.uv__queue, %struct.uv__queue, ptr, %struct.uv__io_s, i32, %struct.anon, i64, i64, [2 x i32], %struct.uv__io_s, %struct.uv_signal_s, i32, %struct.uv__io_s, ptr, i32 }
%union.anon.1 = type { ptr }
%union.pthread_mutex_t = type { %struct.__pthread_mutex_s }
%struct.__pthread_mutex_s = type { i32, i32, i32, i32, i32, i16, i16, %struct.__pthread_internal_list }
%struct.__pthread_internal_list = type { ptr, ptr }
%struct.uv_async_s = type { ptr, ptr, i32, ptr, %struct.uv__queue, %union.anon.2, ptr, i32, ptr, %struct.uv__queue, i32 }
%union.anon.2 = type { [4 x ptr] }
%union.pthread_rwlock_t = type { %struct.__pthread_rwlock_arch_t }
%struct.__pthread_rwlock_arch_t = type { i32, i32, i32, i32, i32, i32, i32, i32, i8, [7 x i8], i64, i32 }
%struct.anon = type { ptr, i32 }
%struct.uv_signal_s = type { ptr, ptr, i32, ptr, %struct.uv__queue, %union.anon.3, ptr, i32, ptr, i32, %struct.anon.4, i32, i32 }
%union.anon.3 = type { [4 x ptr] }
%struct.anon.4 = type { ptr, ptr, ptr, i32 }
%struct.uv__io_s = type { ptr, %struct.uv__queue, %struct.uv__queue, i32, i32, i32 }
%struct.uv_check_s = type { ptr, ptr, i32, ptr, %struct.uv__queue, %union.anon.5, ptr, i32, ptr, %struct.uv__queue }
%union.anon.5 = type { [4 x ptr] }

; Function Attrs: nounwind uwtable
define internal void @uv__queue_insert_head(ptr noundef %h, ptr noundef %q) #0 {
entry:
  %h.addr = alloca ptr, align 8
  %q.addr = alloca ptr, align 8
  store ptr %h, ptr %h.addr, align 8
  store ptr %q, ptr %q.addr, align 8
  %0 = load ptr, ptr %h.addr, align 8
  %next = getelementptr inbounds %struct.uv__queue, ptr %0, i32 0, i32 0
  %1 = load ptr, ptr %next, align 8
  %2 = load ptr, ptr %q.addr, align 8
  %next1 = getelementptr inbounds %struct.uv__queue, ptr %2, i32 0, i32 0
  store ptr %1, ptr %next1, align 8
  %3 = load ptr, ptr %h.addr, align 8
  %4 = load ptr, ptr %q.addr, align 8
  %prev = getelementptr inbounds %struct.uv__queue, ptr %4, i32 0, i32 1
  store ptr %3, ptr %prev, align 8
  %5 = load ptr, ptr %q.addr, align 8
  %6 = load ptr, ptr %q.addr, align 8
  %next2 = getelementptr inbounds %struct.uv__queue, ptr %6, i32 0, i32 0
  %7 = load ptr, ptr %next2, align 8
  %prev3 = getelementptr inbounds %struct.uv__queue, ptr %7, i32 0, i32 1
  store ptr %5, ptr %prev3, align 8
  %8 = load ptr, ptr %q.addr, align 8
  %9 = load ptr, ptr %h.addr, align 8
  %next4 = getelementptr inbounds %struct.uv__queue, ptr %9, i32 0, i32 0
  store ptr %8, ptr %next4, align 8
  ret void
}

; Function Attrs: nounwind uwtable
define i32 @uv_check_start(ptr noundef %handle, ptr noundef %cb) #0 {
entry:
  %retval = alloca i32, align 4
  %handle.addr = alloca ptr, align 8
  %cb.addr = alloca ptr, align 8
  store ptr %handle, ptr %handle.addr, align 8
  store ptr %cb, ptr %cb.addr, align 8
  %0 = load ptr, ptr %handle.addr, align 8
  %flags = getelementptr inbounds %struct.uv_check_s, ptr %0, i32 0, i32 7
  %1 = load i32, ptr %flags, align 8
  %and = and i32 %1, 4
  %cmp = icmp ne i32 %and, 0
  br i1 %cmp, label %if.then, label %if.end

if.then:                                          ; preds = %entry
  store i32 0, ptr %retval, align 4
  br label %return

if.end:                                           ; preds = %entry
  %2 = load ptr, ptr %cb.addr, align 8
  %cmp1 = icmp eq ptr %2, null
  br i1 %cmp1, label %if.then2, label %if.end3

if.then2:                                         ; preds = %if.end
  store i32 -22, ptr %retval, align 4
  br label %return

if.end3:                                          ; preds = %if.end
  %3 = load ptr, ptr %handle.addr, align 8
  %loop = getelementptr inbounds %struct.uv_check_s, ptr %3, i32 0, i32 1
  %4 = load ptr, ptr %loop, align 8
  %check_handles = getelementptr inbounds %struct.uv_loop_s, ptr %4, i32 0, i32 20
  %5 = load ptr, ptr %handle.addr, align 8
  %queue = getelementptr inbounds %struct.uv_check_s, ptr %5, i32 0, i32 9
  call void @uv__queue_insert_head(ptr noundef %check_handles, ptr noundef %queue)
  %6 = load ptr, ptr %cb.addr, align 8
  %7 = load ptr, ptr %handle.addr, align 8
  %check_cb = getelementptr inbounds %struct.uv_check_s, ptr %7, i32 0, i32 8
  store ptr %6, ptr %check_cb, align 8
  br label %do.body

do.body:                                          ; preds = %if.end3
  %8 = load ptr, ptr %handle.addr, align 8
  %flags4 = getelementptr inbounds %struct.uv_check_s, ptr %8, i32 0, i32 7
  %9 = load i32, ptr %flags4, align 8
  %and5 = and i32 %9, 4
  %cmp6 = icmp ne i32 %and5, 0
  br i1 %cmp6, label %if.then7, label %if.end8

if.then7:                                         ; preds = %do.body
  br label %do.end17

if.end8:                                          ; preds = %do.body
  %10 = load ptr, ptr %handle.addr, align 8
  %flags9 = getelementptr inbounds %struct.uv_check_s, ptr %10, i32 0, i32 7
  %11 = load i32, ptr %flags9, align 8
  %or = or i32 %11, 4
  store i32 %or, ptr %flags9, align 8
  %12 = load ptr, ptr %handle.addr, align 8
  %flags10 = getelementptr inbounds %struct.uv_check_s, ptr %12, i32 0, i32 7
  %13 = load i32, ptr %flags10, align 8
  %and11 = and i32 %13, 8
  %cmp12 = icmp ne i32 %and11, 0
  br i1 %cmp12, label %if.then13, label %if.end16

if.then13:                                        ; preds = %if.end8
  br label %do.body14

do.body14:                                        ; preds = %if.then13
  %14 = load ptr, ptr %handle.addr, align 8
  %loop15 = getelementptr inbounds %struct.uv_check_s, ptr %14, i32 0, i32 1
  %15 = load ptr, ptr %loop15, align 8
  %active_handles = getelementptr inbounds %struct.uv_loop_s, ptr %15, i32 0, i32 1
  %16 = load i32, ptr %active_handles, align 8
  %inc = add i32 %16, 1
  store i32 %inc, ptr %active_handles, align 8
  br label %do.end

do.end:                                           ; preds = %do.body14
  br label %if.end16

if.end16:                                         ; preds = %do.end, %if.end8
  br label %do.end17

do.end17:                                         ; preds = %if.end16, %if.then7
  store i32 0, ptr %retval, align 4
  br label %return

return:                                           ; preds = %do.end17, %if.then2, %if.then
  %17 = load i32, ptr %retval, align 4
  ret i32 %17
}